target datalayout = "e-m:e-p270:32:32-p271:32:32-p272:64:64-i64:64-i128:128-f80:128-n8:16:32:64-S128"
target triple = "x86_64-pc-linux-gnu"

%struct._packet_info = type { ptr, ptr, i32, i32, %struct.nstime_t, %struct.nstime_t, %struct.nstime_t, i8, ptr, ptr, ptr, ptr, %struct._address, %struct._address, %struct._address, %struct._address, %struct._address, %struct._address, i32, ptr, i8, [3 x i8], %struct.anon, i32, i32, i32, i32, ptr, i8, ptr, ptr, i16, i16, i32, i32, i16, i32, i32, ptr, ptr, ptr, i8, i8, i16, i16, i16, i32, i16, i16, ptr, ptr, ptr, ptr, ptr, i32, i32 }
%struct.nstime_t = type { i64, i32 }
%struct._address = type { i32, i32, ptr, ptr }
%struct.anon = type { i8, [3 x i8] }

@hf_vpp_buffer_trace = internal global i32 0, align 4
@ett_vpp_trace = internal global i32 0, align 4
@.str.40 = private unnamed_addr constant [10 x i8] c"VPP-Trace\00", align 1
@proto_vpp_trace = internal global i32 0, align 4

; Function Attrs: null_pointer_is_valid sspstrong uwtable
define internal void @add_multi_line_string_to_tree(ptr noundef %0, ptr noundef %1, ptr noundef %2, i32 noundef %3, i32 noundef %4, i32 noundef %5) #0 {
  %7 = alloca ptr, align 8
  %8 = alloca ptr, align 8
  %9 = alloca ptr, align 8
  %10 = alloca i32, align 4
  %11 = alloca i32, align 4
  %12 = alloca i32, align 4
  %13 = alloca i32, align 4
  %14 = alloca i32, align 4
  %15 = alloca i32, align 4
  store ptr %0, ptr %7, align 8
  store ptr %1, ptr %8, align 8
  store ptr %2, ptr %9, align 8
  store i32 %3, ptr %10, align 4
  store i32 %4, ptr %11, align 4
  store i32 %5, ptr %12, align 4
  call void @llvm.lifetime.start.p0(i64 4, ptr %13) #3
  call void @llvm.lifetime.start.p0(i64 4, ptr %14) #3
  call void @llvm.lifetime.start.p0(i64 4, ptr %15) #3
  br label %16

16:                                               ; preds = %19, %6
  %17 = load i32, ptr %11, align 4
  %18 = icmp sgt i32 %17, 0
  br i1 %18, label %19, label %46

19:                                               ; preds = %16
  %20 = load ptr, ptr %8, align 8
  %21 = load i32, ptr %10, align 4
  %22 = load i32, ptr %11, align 4
  %23 = call i32 @tvb_find_line_end(ptr noundef %20, i32 noundef %21, i32 noundef %22, ptr noundef %13, i1 noundef zeroext false)
  store i32 %23, ptr %14, align 4
  %24 = load i32, ptr %13, align 4
  %25 = load i32, ptr %10, align 4
  %26 = sub i32 %24, %25
  store i32 %26, ptr %15, align 4
  %27 = load ptr, ptr %7, align 8
  %28 = load i32, ptr %12, align 4
  %29 = load ptr, ptr %8, align 8
  %30 = load i32, ptr %10, align 4
  %31 = load i32, ptr %15, align 4
  %32 = load ptr, ptr %9, align 8
  %33 = getelementptr inbounds nuw %struct._packet_info, ptr %32, i32 0, i32 51
  %34 = load ptr, ptr %33, align 8
  %35 = load ptr, ptr %8, align 8
  %36 = load i32, ptr %10, align 4
  %37 = load i32, ptr %14, align 4
  %38 = call ptr @tvb_format_stringzpad(ptr noundef %34, ptr noundef %35, i32 noundef %36, i32 noundef %37)
  %39 = call ptr @proto_tree_add_string(ptr noundef %27, i32 noundef %28, ptr noundef %29, i32 noundef %30, i32 noundef %31, ptr noundef %38)
  %40 = load i32, ptr %15, align 4
  %41 = load i32, ptr %10, align 4
  %42 = add i32 %41, %40
  store i32 %42, ptr %10, align 4
  %43 = load i32, ptr %15, align 4
  %44 = load i32, ptr %11, align 4
  %45 = sub i32 %44, %43
  store i32 %45, ptr %11, align 4
  br label %16, !llvm.loop !6

46:                                               ; preds = %16
  call void @llvm.lifetime.end.p0(i64 4, ptr %15) #3
  call void @llvm.lifetime.end.p0(i64 4, ptr %14) #3
  call void @llvm.lifetime.end.p0(i64 4, ptr %13) #3
  ret void
}

; Function Attrs: null_pointer_is_valid sspstrong uwtable
define internal i32 @dissect_vpp_trace(ptr noundef %0, ptr noundef %1, ptr noundef %2, ptr noundef %3) #0 {
  %5 = alloca ptr, align 8
  %6 = alloca ptr, align 8
  %7 = alloca ptr, align 8
  %8 = alloca ptr, align 8
  %9 = alloca i32, align 4
  %10 = alloca ptr, align 8
  %11 = alloca ptr, align 8
  %12 = alloca i32, align 4
  store ptr %0, ptr %5, align 8
  store ptr %1, ptr %6, align 8
  store ptr %2, ptr %7, align 8
  store ptr %3, ptr %8, align 8
  call void @llvm.lifetime.start.p0(i64 4, ptr %9) #3
  store i32 0, ptr %9, align 4
  call void @llvm.lifetime.start.p0(i64 8, ptr %10) #3
  call void @llvm.lifetime.start.p0(i64 8, ptr %11) #3
  call void @llvm.lifetime.start.p0(i64 4, ptr %12) #3
  %13 = load ptr, ptr %6, align 8
  %14 = getelementptr inbounds nuw %struct._packet_info, ptr %13, i32 0, i32 1
  %15 = load ptr, ptr %14, align 8
  call void @col_set_str(ptr noundef %15, i32 noundef 35, ptr noundef @.str.40)
  %16 = load ptr, ptr %6, align 8
  %17 = getelementptr inbounds nuw %struct._packet_info, ptr %16, i32 0, i32 1
  %18 = load ptr, ptr %17, align 8
  call void @col_clear(ptr noundef %18, i32 noundef 25)
  %19 = load ptr, ptr %7, align 8
  %20 = load i32, ptr @proto_vpp_trace, align 4
  %21 = load ptr, ptr %5, align 8
  %22 = load i32, ptr %9, align 4
  %23 = call ptr @proto_tree_add_item(ptr noundef %19, i32 noundef %20, ptr noundef %21, i32 noundef %22, i32 noundef -1, i32 noundef 0)
  store ptr %23, ptr %10, align 8
  %24 = load ptr, ptr %10, align 8
  %25 = load i32, ptr @ett_vpp_trace, align 4
  %26 = call ptr @proto_item_add_subtree(ptr noundef %24, i32 noundef %25)
  store ptr %26, ptr %11, align 8
  %27 = load ptr, ptr %5, align 8
  %28 = load i32, ptr %9, align 4
  %29 = call i32 @tvb_strsize(ptr noundef %27, i32 noundef %28)
  store i32 %29, ptr %12, align 4
  %30 = load ptr, ptr %11, align 8
  %31 = load ptr, ptr %5, align 8
  %32 = load ptr, ptr %6, align 8
  %33 = load i32, ptr %12, align 4
  %34 = load i32, ptr @hf_vpp_buffer_trace, align 4
  call void @add_multi_line_string_to_tree(ptr noundef %30, ptr noundef %31, ptr noundef %32, i32 noundef 0, i32 noundef %33, i32 noundef %34)
  %35 = load ptr, ptr %5, align 8
  %36 = call i32 @tvb_captured_length(ptr noundef %35)
  call void @llvm.lifetime.end.p0(i64 4, ptr %12) #3
  call void @llvm.lifetime.end.p0(i64 8, ptr %11) #3
  call void @llvm.lifetime.end.p0(i64 8, ptr %10) #3
  call void @llvm.lifetime.end.p0(i64 4, ptr %9) #3
  ret i32 %36
}